
a.out:     file format elf64-x86-64


Disassembly of section .init:

0000000000400470 <_init>:
  400470:	48 83 ec 08          	sub    $0x8,%rsp
  400474:	48 8b 05 7d 0b 20 00 	mov    0x200b7d(%rip),%rax        # 600ff8 <_DYNAMIC+0x1d0>
  40047b:	48 85 c0             	test   %rax,%rax
  40047e:	74 05                	je     400485 <_init+0x15>
  400480:	e8 6b 00 00 00       	callq  4004f0 <sleep@plt+0x10>
  400485:	48 83 c4 08          	add    $0x8,%rsp
  400489:	c3                   	retq   

Disassembly of section .plt:

0000000000400490 <putchar@plt-0x10>:
  400490:	ff 35 72 0b 20 00    	pushq  0x200b72(%rip)        # 601008 <_GLOBAL_OFFSET_TABLE_+0x8>
  400496:	ff 25 74 0b 20 00    	jmpq   *0x200b74(%rip)        # 601010 <_GLOBAL_OFFSET_TABLE_+0x10>
  40049c:	0f 1f 40 00          	nopl   0x0(%rax)

00000000004004a0 <putchar@plt>:
  4004a0:	ff 25 72 0b 20 00    	jmpq   *0x200b72(%rip)        # 601018 <_GLOBAL_OFFSET_TABLE_+0x18>
  4004a6:	68 00 00 00 00       	pushq  $0x0
  4004ab:	e9 e0 ff ff ff       	jmpq   400490 <_init+0x20>

00000000004004b0 <puts@plt>:
  4004b0:	ff 25 6a 0b 20 00    	jmpq   *0x200b6a(%rip)        # 601020 <_GLOBAL_OFFSET_TABLE_+0x20>
  4004b6:	68 01 00 00 00       	pushq  $0x1
  4004bb:	e9 d0 ff ff ff       	jmpq   400490 <_init+0x20>

00000000004004c0 <printf@plt>:
  4004c0:	ff 25 62 0b 20 00    	jmpq   *0x200b62(%rip)        # 601028 <_GLOBAL_OFFSET_TABLE_+0x28>
  4004c6:	68 02 00 00 00       	pushq  $0x2
  4004cb:	e9 c0 ff ff ff       	jmpq   400490 <_init+0x20>

00000000004004d0 <__libc_start_main@plt>:
  4004d0:	ff 25 5a 0b 20 00    	jmpq   *0x200b5a(%rip)        # 601030 <_GLOBAL_OFFSET_TABLE_+0x30>
  4004d6:	68 03 00 00 00       	pushq  $0x3
  4004db:	e9 b0 ff ff ff       	jmpq   400490 <_init+0x20>

00000000004004e0 <sleep@plt>:
  4004e0:	ff 25 52 0b 20 00    	jmpq   *0x200b52(%rip)        # 601038 <_GLOBAL_OFFSET_TABLE_+0x38>
  4004e6:	68 04 00 00 00       	pushq  $0x4
  4004eb:	e9 a0 ff ff ff       	jmpq   400490 <_init+0x20>

Disassembly of section .plt.got:

00000000004004f0 <.plt.got>:
  4004f0:	ff 25 02 0b 20 00    	jmpq   *0x200b02(%rip)        # 600ff8 <_DYNAMIC+0x1d0>
  4004f6:	66 90                	xchg   %ax,%ax

Disassembly of section .text:

0000000000400500 <_start>:
  400500:	31 ed                	xor    %ebp,%ebp
  400502:	49 89 d1             	mov    %rdx,%r9
  400505:	5e                   	pop    %rsi
  400506:	48 89 e2             	mov    %rsp,%rdx
  400509:	48 83 e4 f0          	and    $0xfffffffffffffff0,%rsp
  40050d:	50                   	push   %rax
  40050e:	54                   	push   %rsp
  40050f:	49 c7 c0 f0 08 40 00 	mov    $0x4008f0,%r8
  400516:	48 c7 c1 80 08 40 00 	mov    $0x400880,%rcx
  40051d:	48 c7 c7 b9 06 40 00 	mov    $0x4006b9,%rdi
  400524:	e8 a7 ff ff ff       	callq  4004d0 <__libc_start_main@plt>
  400529:	f4                   	hlt    
  40052a:	66 0f 1f 44 00 00    	nopw   0x0(%rax,%rax,1)

0000000000400530 <deregister_tm_clones>:
  400530:	b8 67 10 60 00       	mov    $0x601067,%eax
  400535:	55                   	push   %rbp
  400536:	48 2d 60 10 60 00    	sub    $0x601060,%rax
  40053c:	48 83 f8 0e          	cmp    $0xe,%rax
  400540:	48 89 e5             	mov    %rsp,%rbp
  400543:	76 1b                	jbe    400560 <deregister_tm_clones+0x30>
  400545:	b8 00 00 00 00       	mov    $0x0,%eax
  40054a:	48 85 c0             	test   %rax,%rax
  40054d:	74 11                	je     400560 <deregister_tm_clones+0x30>
  40054f:	5d                   	pop    %rbp
  400550:	bf 60 10 60 00       	mov    $0x601060,%edi
  400555:	ff e0                	jmpq   *%rax
  400557:	66 0f 1f 84 00 00 00 	nopw   0x0(%rax,%rax,1)
  40055e:	00 00 
  400560:	5d                   	pop    %rbp
  400561:	c3                   	retq   
  400562:	0f 1f 40 00          	nopl   0x0(%rax)
  400566:	66 2e 0f 1f 84 00 00 	nopw   %cs:0x0(%rax,%rax,1)
  40056d:	00 00 00 

0000000000400570 <register_tm_clones>:
  400570:	be 60 10 60 00       	mov    $0x601060,%esi
  400575:	55                   	push   %rbp
  400576:	48 81 ee 60 10 60 00 	sub    $0x601060,%rsi
  40057d:	48 c1 fe 03          	sar    $0x3,%rsi
  400581:	48 89 e5             	mov    %rsp,%rbp
  400584:	48 89 f0             	mov    %rsi,%rax
  400587:	48 c1 e8 3f          	shr    $0x3f,%rax
  40058b:	48 01 c6             	add    %rax,%rsi
  40058e:	48 d1 fe             	sar    %rsi
  400591:	74 15                	je     4005a8 <register_tm_clones+0x38>
  400593:	b8 00 00 00 00       	mov    $0x0,%eax
  400598:	48 85 c0             	test   %rax,%rax
  40059b:	74 0b                	je     4005a8 <register_tm_clones+0x38>
  40059d:	5d                   	pop    %rbp
  40059e:	bf 60 10 60 00       	mov    $0x601060,%edi
  4005a3:	ff e0                	jmpq   *%rax
  4005a5:	0f 1f 00             	nopl   (%rax)
  4005a8:	5d                   	pop    %rbp
  4005a9:	c3                   	retq   
  4005aa:	66 0f 1f 44 00 00    	nopw   0x0(%rax,%rax,1)

00000000004005b0 <__do_global_dtors_aux>:
  4005b0:	80 3d a9 0a 20 00 00 	cmpb   $0x0,0x200aa9(%rip)        # 601060 <__TMC_END__>
  4005b7:	75 11                	jne    4005ca <__do_global_dtors_aux+0x1a>
  4005b9:	55                   	push   %rbp
  4005ba:	48 89 e5             	mov    %rsp,%rbp
  4005bd:	e8 6e ff ff ff       	callq  400530 <deregister_tm_clones>
  4005c2:	5d                   	pop    %rbp
  4005c3:	c6 05 96 0a 20 00 01 	movb   $0x1,0x200a96(%rip)        # 601060 <__TMC_END__>
  4005ca:	f3 c3                	repz retq 
  4005cc:	0f 1f 40 00          	nopl   0x0(%rax)

00000000004005d0 <frame_dummy>:
  4005d0:	bf 20 0e 60 00       	mov    $0x600e20,%edi
  4005d5:	48 83 3f 00          	cmpq   $0x0,(%rdi)
  4005d9:	75 05                	jne    4005e0 <frame_dummy+0x10>
  4005db:	eb 93                	jmp    400570 <register_tm_clones>
  4005dd:	0f 1f 00             	nopl   (%rax)
  4005e0:	b8 00 00 00 00       	mov    $0x0,%eax
  4005e5:	48 85 c0             	test   %rax,%rax
  4005e8:	74 f1                	je     4005db <frame_dummy+0xb>
  4005ea:	55                   	push   %rbp
  4005eb:	48 89 e5             	mov    %rsp,%rbp
  4005ee:	ff d0                	callq  *%rax
  4005f0:	5d                   	pop    %rbp
  4005f1:	e9 7a ff ff ff       	jmpq   400570 <register_tm_clones>

00000000004005f6 <func>:
static int s;
int m = 6;
const char *string = "nece to meet you";
const char array[] = "glad to talk to you";
int func()
{
  4005f6:	55                   	push   %rbp
  4005f7:	48 89 e5             	mov    %rsp,%rbp
    printf("func called\n");
  4005fa:	bf 44 09 40 00       	mov    $0x400944,%edi
  4005ff:	e8 ac fe ff ff       	callq  4004b0 <puts@plt>
    return 0;
  400604:	b8 00 00 00 00       	mov    $0x0,%eax
}
  400609:	5d                   	pop    %rbp
  40060a:	c3                   	retq   

000000000040060b <dumphex>:
int dumphex(unsigned char *start,unsigned int length)
{
  40060b:	55                   	push   %rbp
  40060c:	48 89 e5             	mov    %rsp,%rbp
  40060f:	48 83 ec 20          	sub    $0x20,%rsp
  400613:	48 89 7d e8          	mov    %rdi,-0x18(%rbp)
  400617:	89 75 e4             	mov    %esi,-0x1c(%rbp)
    int i = 0;
  40061a:	c7 45 f0 00 00 00 00 	movl   $0x0,-0x10(%rbp)
    int len = length;
  400621:	8b 45 e4             	mov    -0x1c(%rbp),%eax
  400624:	89 45 f4             	mov    %eax,-0xc(%rbp)

    unsigned char *p = NULL;
  400627:	48 c7 45 f8 00 00 00 	movq   $0x0,-0x8(%rbp)
  40062e:	00 
    p = start;
  40062f:	48 8b 45 e8          	mov    -0x18(%rbp),%rax
  400633:	48 89 45 f8          	mov    %rax,-0x8(%rbp)
    for (i = 0;i < len;i++) {
  400637:	c7 45 f0 00 00 00 00 	movl   $0x0,-0x10(%rbp)
  40063e:	eb 6e                	jmp    4006ae <dumphex+0xa3>
        if ((i % 16) == 0)
  400640:	8b 45 f0             	mov    -0x10(%rbp),%eax
  400643:	83 e0 0f             	and    $0xf,%eax
  400646:	85 c0                	test   %eax,%eax
  400648:	75 1f                	jne    400669 <dumphex+0x5e>
            printf("0x%p:",(p+i)); 
  40064a:	8b 45 f0             	mov    -0x10(%rbp),%eax
  40064d:	48 63 d0             	movslq %eax,%rdx
  400650:	48 8b 45 f8          	mov    -0x8(%rbp),%rax
  400654:	48 01 d0             	add    %rdx,%rax
  400657:	48 89 c6             	mov    %rax,%rsi
  40065a:	bf 50 09 40 00       	mov    $0x400950,%edi
  40065f:	b8 00 00 00 00       	mov    $0x0,%eax
  400664:	e8 57 fe ff ff       	callq  4004c0 <printf@plt>
        printf("%02x ",*(p+i));
  400669:	8b 45 f0             	mov    -0x10(%rbp),%eax
  40066c:	48 63 d0             	movslq %eax,%rdx
  40066f:	48 8b 45 f8          	mov    -0x8(%rbp),%rax
  400673:	48 01 d0             	add    %rdx,%rax
  400676:	0f b6 00             	movzbl (%rax),%eax
  400679:	0f b6 c0             	movzbl %al,%eax
  40067c:	89 c6                	mov    %eax,%esi
  40067e:	bf 56 09 40 00       	mov    $0x400956,%edi
  400683:	b8 00 00 00 00       	mov    $0x0,%eax
  400688:	e8 33 fe ff ff       	callq  4004c0 <printf@plt>
        if ((i % 16) == 15)            
  40068d:	8b 45 f0             	mov    -0x10(%rbp),%eax
  400690:	99                   	cltd   
  400691:	c1 ea 1c             	shr    $0x1c,%edx
  400694:	01 d0                	add    %edx,%eax
  400696:	83 e0 0f             	and    $0xf,%eax
  400699:	29 d0                	sub    %edx,%eax
  40069b:	83 f8 0f             	cmp    $0xf,%eax
  40069e:	75 0a                	jne    4006aa <dumphex+0x9f>
            printf("\n");
  4006a0:	bf 0a 00 00 00       	mov    $0xa,%edi
  4006a5:	e8 f6 fd ff ff       	callq  4004a0 <putchar@plt>
    int i = 0;
    int len = length;

    unsigned char *p = NULL;
    p = start;
    for (i = 0;i < len;i++) {
  4006aa:	83 45 f0 01          	addl   $0x1,-0x10(%rbp)
  4006ae:	8b 45 f0             	mov    -0x10(%rbp),%eax
  4006b1:	3b 45 f4             	cmp    -0xc(%rbp),%eax
  4006b4:	7c 8a                	jl     400640 <dumphex+0x35>
        if ((i % 16) == 15)            
            printf("\n");
    }
    
    
}
  4006b6:	90                   	nop
  4006b7:	c9                   	leaveq 
  4006b8:	c3                   	retq   

00000000004006b9 <main>:
typedef int (*ft)(); 
int main()
{
  4006b9:	55                   	push   %rbp
  4006ba:	48 89 e5             	mov    %rsp,%rbp
  4006bd:	48 83 ec 20          	sub    $0x20,%rsp
    int a = 1;
  4006c1:	c7 45 ec 01 00 00 00 	movl   $0x1,-0x14(%rbp)
    int b = 2;
  4006c8:	c7 45 f0 02 00 00 00 	movl   $0x2,-0x10(%rbp)
    int c = a+b;
  4006cf:	8b 55 ec             	mov    -0x14(%rbp),%edx
  4006d2:	8b 45 f0             	mov    -0x10(%rbp),%eax
  4006d5:	01 d0                	add    %edx,%eax
  4006d7:	89 45 f4             	mov    %eax,-0xc(%rbp)
    static int count;
    ft pf = NULL;
  4006da:	48 c7 45 f8 00 00 00 	movq   $0x0,-0x8(%rbp)
  4006e1:	00 
    pf = (ft )0x4005f6;
  4006e2:	48 c7 45 f8 f6 05 40 	movq   $0x4005f6,-0x8(%rbp)
  4006e9:	00 
    dumphex((unsigned char *)0x600000,0x1000);
  4006ea:	be 00 10 00 00       	mov    $0x1000,%esi
  4006ef:	bf 00 00 60 00       	mov    $0x600000,%edi
  4006f4:	e8 12 ff ff ff       	callq  40060b <dumphex>
    dumphex((unsigned char *)0x400000,0x1000);
  4006f9:	be 00 10 00 00       	mov    $0x1000,%esi
  4006fe:	bf 00 00 40 00       	mov    $0x400000,%edi
  400703:	e8 03 ff ff ff       	callq  40060b <dumphex>
    dumphex((unsigned char *)0x601000,0x1000);
  400708:	be 00 10 00 00       	mov    $0x1000,%esi
  40070d:	bf 00 10 60 00       	mov    $0x601000,%edi
  400712:	e8 f4 fe ff ff       	callq  40060b <dumphex>
    while (1) {
    count++;
  400717:	8b 05 4b 09 20 00    	mov    0x20094b(%rip),%eax        # 601068 <count.2910>
  40071d:	83 c0 01             	add    $0x1,%eax
  400720:	89 05 42 09 20 00    	mov    %eax,0x200942(%rip)        # 601068 <count.2910>
    g = count + 4;   
  400726:	8b 05 3c 09 20 00    	mov    0x20093c(%rip),%eax        # 601068 <count.2910>
  40072c:	83 c0 04             	add    $0x4,%eax
  40072f:	89 05 37 09 20 00    	mov    %eax,0x200937(%rip)        # 60106c <g>
    printf("=============begin================\n");
  400735:	bf 60 09 40 00       	mov    $0x400960,%edi
  40073a:	e8 71 fd ff ff       	callq  4004b0 <puts@plt>
    printf("count = %d\n",count);
  40073f:	8b 05 23 09 20 00    	mov    0x200923(%rip),%eax        # 601068 <count.2910>
  400745:	89 c6                	mov    %eax,%esi
  400747:	bf 83 09 40 00       	mov    $0x400983,%edi
  40074c:	b8 00 00 00 00       	mov    $0x0,%eax
  400751:	e8 6a fd ff ff       	callq  4004c0 <printf@plt>
    printf("main %p\n",&main);
  400756:	be b9 06 40 00       	mov    $0x4006b9,%esi
  40075b:	bf 8f 09 40 00       	mov    $0x40098f,%edi
  400760:	b8 00 00 00 00       	mov    $0x0,%eax
  400765:	e8 56 fd ff ff       	callq  4004c0 <printf@plt>
    printf("g addr %p,value %d\n",&g, g);
  40076a:	8b 05 fc 08 20 00    	mov    0x2008fc(%rip),%eax        # 60106c <g>
  400770:	89 c2                	mov    %eax,%edx
  400772:	be 6c 10 60 00       	mov    $0x60106c,%esi
  400777:	bf 98 09 40 00       	mov    $0x400998,%edi
  40077c:	b8 00 00 00 00       	mov    $0x0,%eax
  400781:	e8 3a fd ff ff       	callq  4004c0 <printf@plt>
    printf("f addr %p, value %d\n",&f,f);
  400786:	b8 00 00 00 00       	mov    $0x0,%eax
  40078b:	89 c2                	mov    %eax,%edx
  40078d:	be 10 09 40 00       	mov    $0x400910,%esi
  400792:	bf ac 09 40 00       	mov    $0x4009ac,%edi
  400797:	b8 00 00 00 00       	mov    $0x0,%eax
  40079c:	e8 1f fd ff ff       	callq  4004c0 <printf@plt>
    printf("m addr %p, value %d\n",&m,m);
  4007a1:	8b 05 a9 08 20 00    	mov    0x2008a9(%rip),%eax        # 601050 <m>
  4007a7:	89 c2                	mov    %eax,%edx
  4007a9:	be 50 10 60 00       	mov    $0x601050,%esi
  4007ae:	bf c1 09 40 00       	mov    $0x4009c1,%edi
  4007b3:	b8 00 00 00 00       	mov    $0x0,%eax
  4007b8:	e8 03 fd ff ff       	callq  4004c0 <printf@plt>
    printf("func addr %p\n",&func);
  4007bd:	be f6 05 40 00       	mov    $0x4005f6,%esi
  4007c2:	bf d6 09 40 00       	mov    $0x4009d6,%edi
  4007c7:	b8 00 00 00 00       	mov    $0x0,%eax
  4007cc:	e8 ef fc ff ff       	callq  4004c0 <printf@plt>
    printf("string addr %p, content %s value 0x%llx\n",&string,string,(unsigned long long )string);
  4007d1:	48 8b 05 80 08 20 00 	mov    0x200880(%rip),%rax        # 601058 <string>
  4007d8:	48 89 c2             	mov    %rax,%rdx
  4007db:	48 8b 05 76 08 20 00 	mov    0x200876(%rip),%rax        # 601058 <string>
  4007e2:	48 89 d1             	mov    %rdx,%rcx
  4007e5:	48 89 c2             	mov    %rax,%rdx
  4007e8:	be 58 10 60 00       	mov    $0x601058,%esi
  4007ed:	bf e8 09 40 00       	mov    $0x4009e8,%edi
  4007f2:	b8 00 00 00 00       	mov    $0x0,%eax
  4007f7:	e8 c4 fc ff ff       	callq  4004c0 <printf@plt>
    printf("s addr %p, s value %d\n",&s,s);
  4007fc:	8b 05 62 08 20 00    	mov    0x200862(%rip),%eax        # 601064 <s>
  400802:	89 c2                	mov    %eax,%edx
  400804:	be 64 10 60 00       	mov    $0x601064,%esi
  400809:	bf 11 0a 40 00       	mov    $0x400a11,%edi
  40080e:	b8 00 00 00 00       	mov    $0x0,%eax
  400813:	e8 a8 fc ff ff       	callq  4004c0 <printf@plt>
    printf("string again %s\n",(char *)0x400914);
  400818:	be 14 09 40 00       	mov    $0x400914,%esi
  40081d:	bf 28 0a 40 00       	mov    $0x400a28,%edi
  400822:	b8 00 00 00 00       	mov    $0x0,%eax
  400827:	e8 94 fc ff ff       	callq  4004c0 <printf@plt>
    printf("array addr %p,content %s value 0x%llx\n",&array,array,(unsigned long long)array);
  40082c:	b8 30 09 40 00       	mov    $0x400930,%eax
  400831:	48 89 c1             	mov    %rax,%rcx
  400834:	ba 30 09 40 00       	mov    $0x400930,%edx
  400839:	be 30 09 40 00       	mov    $0x400930,%esi
  40083e:	bf 40 0a 40 00       	mov    $0x400a40,%edi
  400843:	b8 00 00 00 00       	mov    $0x0,%eax
  400848:	e8 73 fc ff ff       	callq  4004c0 <printf@plt>
    
    pf();
  40084d:	48 8b 55 f8          	mov    -0x8(%rbp),%rdx
  400851:	b8 00 00 00 00       	mov    $0x0,%eax
  400856:	ff d2                	callq  *%rdx
    printf("=============end================\n");
  400858:	bf 68 0a 40 00       	mov    $0x400a68,%edi
  40085d:	e8 4e fc ff ff       	callq  4004b0 <puts@plt>
    sleep(10);
  400862:	bf 0a 00 00 00       	mov    $0xa,%edi
  400867:	e8 74 fc ff ff       	callq  4004e0 <sleep@plt>
    }
  40086c:	e9 a6 fe ff ff       	jmpq   400717 <main+0x5e>
  400871:	66 2e 0f 1f 84 00 00 	nopw   %cs:0x0(%rax,%rax,1)
  400878:	00 00 00 
  40087b:	0f 1f 44 00 00       	nopl   0x0(%rax,%rax,1)

0000000000400880 <__libc_csu_init>:
  400880:	41 57                	push   %r15
  400882:	41 56                	push   %r14
  400884:	41 89 ff             	mov    %edi,%r15d
  400887:	41 55                	push   %r13
  400889:	41 54                	push   %r12
  40088b:	4c 8d 25 7e 05 20 00 	lea    0x20057e(%rip),%r12        # 600e10 <__frame_dummy_init_array_entry>
  400892:	55                   	push   %rbp
  400893:	48 8d 2d 7e 05 20 00 	lea    0x20057e(%rip),%rbp        # 600e18 <__init_array_end>
  40089a:	53                   	push   %rbx
  40089b:	49 89 f6             	mov    %rsi,%r14
  40089e:	49 89 d5             	mov    %rdx,%r13
  4008a1:	4c 29 e5             	sub    %r12,%rbp
  4008a4:	48 83 ec 08          	sub    $0x8,%rsp
  4008a8:	48 c1 fd 03          	sar    $0x3,%rbp
  4008ac:	e8 bf fb ff ff       	callq  400470 <_init>
  4008b1:	48 85 ed             	test   %rbp,%rbp
  4008b4:	74 20                	je     4008d6 <__libc_csu_init+0x56>
  4008b6:	31 db                	xor    %ebx,%ebx
  4008b8:	0f 1f 84 00 00 00 00 	nopl   0x0(%rax,%rax,1)
  4008bf:	00 
  4008c0:	4c 89 ea             	mov    %r13,%rdx
  4008c3:	4c 89 f6             	mov    %r14,%rsi
  4008c6:	44 89 ff             	mov    %r15d,%edi
  4008c9:	41 ff 14 dc          	callq  *(%r12,%rbx,8)
  4008cd:	48 83 c3 01          	add    $0x1,%rbx
  4008d1:	48 39 eb             	cmp    %rbp,%rbx
  4008d4:	75 ea                	jne    4008c0 <__libc_csu_init+0x40>
  4008d6:	48 83 c4 08          	add    $0x8,%rsp
  4008da:	5b                   	pop    %rbx
  4008db:	5d                   	pop    %rbp
  4008dc:	41 5c                	pop    %r12
  4008de:	41 5d                	pop    %r13
  4008e0:	41 5e                	pop    %r14
  4008e2:	41 5f                	pop    %r15
  4008e4:	c3                   	retq   
  4008e5:	90                   	nop
  4008e6:	66 2e 0f 1f 84 00 00 	nopw   %cs:0x0(%rax,%rax,1)
  4008ed:	00 00 00 

00000000004008f0 <__libc_csu_fini>:
  4008f0:	f3 c3                	repz retq 

Disassembly of section .fini:

00000000004008f4 <_fini>:
  4008f4:	48 83 ec 08          	sub    $0x8,%rsp
  4008f8:	48 83 c4 08          	add    $0x8,%rsp
  4008fc:	c3                   	retq   
